target datalayout = "e-m:e-p270:32:32-p271:32:32-p272:64:64-i64:64-i128:128-f80:128-n8:16:32:64-S128"
target triple = "x86_64-pc-linux-gnu"

%struct.OnigEncodingTypeST = type { ptr, ptr, i32, i32, ptr, ptr, ptr, ptr, ptr, ptr, ptr, ptr, ptr, ptr, ptr, ptr, ptr, ptr, ptr, i32, i32, i32 }
%struct._BBuf = type { ptr, i32, i32 }

; Function Attrs: nounwind uwtable
define internal void @bbuf_free(ptr noundef %0) #0 {
  %2 = alloca ptr, align 8
  store ptr %0, ptr %2, align 8, !tbaa !123
  %3 = load ptr, ptr %2, align 8, !tbaa !123
  %4 = icmp ne ptr %3, null
  br i1 %4, label %5, label %16

5:                                                ; preds = %1
  %6 = load ptr, ptr %2, align 8, !tbaa !123
  %7 = getelementptr inbounds nuw %struct._BBuf, ptr %6, i32 0, i32 0
  %8 = load ptr, ptr %7, align 8, !tbaa !127
  %9 = icmp ne ptr %8, null
  br i1 %9, label %10, label %14

10:                                               ; preds = %5
  %11 = load ptr, ptr %2, align 8, !tbaa !123
  %12 = getelementptr inbounds nuw %struct._BBuf, ptr %11, i32 0, i32 0
  %13 = load ptr, ptr %12, align 8, !tbaa !127
  call void @free(ptr noundef %13) #8
  br label %14

14:                                               ; preds = %10, %5
  %15 = load ptr, ptr %2, align 8, !tbaa !123
  call void @free(ptr noundef %15) #8
  br label %16

16:                                               ; preds = %14, %1
  ret void
}

; Function Attrs: nounwind uwtable
define internal i32 @bbuf_init(ptr noundef %0, i32 noundef %1) #0 {
  %3 = alloca i32, align 4
  %4 = alloca ptr, align 8
  %5 = alloca i32, align 4
  store ptr %0, ptr %4, align 8, !tbaa !123
  store i32 %1, ptr %5, align 4, !tbaa !10
  %6 = load i32, ptr %5, align 4, !tbaa !10
  %7 = icmp sle i32 %6, 0
  br i1 %7, label %8, label %11

8:                                                ; preds = %2
  store i32 0, ptr %5, align 4, !tbaa !10
  %9 = load ptr, ptr %4, align 8, !tbaa !123
  %10 = getelementptr inbounds nuw %struct._BBuf, ptr %9, i32 0, i32 0
  store ptr null, ptr %10, align 8, !tbaa !127
  br label %23

11:                                               ; preds = %2
  %12 = load i32, ptr %5, align 4, !tbaa !10
  %13 = sext i32 %12 to i64
  %14 = call noalias ptr @malloc(i64 noundef %13) #9
  %15 = load ptr, ptr %4, align 8, !tbaa !123
  %16 = getelementptr inbounds nuw %struct._BBuf, ptr %15, i32 0, i32 0
  store ptr %14, ptr %16, align 8, !tbaa !127
  %17 = load ptr, ptr %4, align 8, !tbaa !123
  %18 = getelementptr inbounds nuw %struct._BBuf, ptr %17, i32 0, i32 0
  %19 = load ptr, ptr %18, align 8, !tbaa !127
  %20 = icmp eq ptr %19, null
  br i1 %20, label %21, label %22

21:                                               ; preds = %11
  store i32 -5, ptr %3, align 4
  br label %29

22:                                               ; preds = %11
  br label %23

23:                                               ; preds = %22, %8
  %24 = load i32, ptr %5, align 4, !tbaa !10
  %25 = load ptr, ptr %4, align 8, !tbaa !123
  %26 = getelementptr inbounds nuw %struct._BBuf, ptr %25, i32 0, i32 2
  store i32 %24, ptr %26, align 4, !tbaa !124
  %27 = load ptr, ptr %4, align 8, !tbaa !123
  %28 = getelementptr inbounds nuw %struct._BBuf, ptr %27, i32 0, i32 1
  store i32 0, ptr %28, align 8, !tbaa !126
  store i32 0, ptr %3, align 4
  br label %29

29:                                               ; preds = %23, %21
  %30 = load i32, ptr %3, align 4
  ret i32 %30
}

; Function Attrs: nounwind uwtable
define internal i32 @bbuf_clone(ptr noundef %0, ptr noundef %1) #0 {
  %3 = alloca i32, align 4
  %4 = alloca ptr, align 8
  %5 = alloca ptr, align 8
  %6 = alloca i32, align 4
  %7 = alloca ptr, align 8
  %8 = alloca i32, align 4
  store ptr %0, ptr %4, align 8, !tbaa !121
  store ptr %1, ptr %5, align 8, !tbaa !123
  call void @llvm.lifetime.start.p0(i64 4, ptr %6) #8
  call void @llvm.lifetime.start.p0(i64 8, ptr %7) #8
  %9 = call noalias ptr @malloc(i64 noundef 16) #9
  store ptr %9, ptr %7, align 8, !tbaa !123
  %10 = load ptr, ptr %4, align 8, !tbaa !121
  store ptr %9, ptr %10, align 8, !tbaa !123
  %11 = load ptr, ptr %7, align 8, !tbaa !123
  %12 = icmp eq ptr %11, null
  br i1 %12, label %13, label %14

13:                                               ; preds = %2
  store i32 -5, ptr %3, align 4
  store i32 1, ptr %8, align 4
  br label %42

14:                                               ; preds = %2
  %15 = load ptr, ptr %7, align 8, !tbaa !123
  %16 = load ptr, ptr %5, align 8, !tbaa !123
  %17 = getelementptr inbounds nuw %struct._BBuf, ptr %16, i32 0, i32 2
  %18 = load i32, ptr %17, align 4, !tbaa !124
  %19 = call i32 @bbuf_init(ptr noundef %15, i32 noundef %18)
  store i32 %19, ptr %6, align 4, !tbaa !10
  %20 = load i32, ptr %6, align 4, !tbaa !10
  %21 = icmp ne i32 %20, 0
  br i1 %21, label %22, label %26

22:                                               ; preds = %14
  %23 = load ptr, ptr %7, align 8, !tbaa !123
  call void @bbuf_free(ptr noundef %23)
  %24 = load ptr, ptr %4, align 8, !tbaa !121
  store ptr null, ptr %24, align 8, !tbaa !123
  %25 = load i32, ptr %6, align 4, !tbaa !10
  store i32 %25, ptr %3, align 4
  store i32 1, ptr %8, align 4
  br label %42

26:                                               ; preds = %14
  %27 = load ptr, ptr %5, align 8, !tbaa !123
  %28 = getelementptr inbounds nuw %struct._BBuf, ptr %27, i32 0, i32 1
  %29 = load i32, ptr %28, align 8, !tbaa !126
  %30 = load ptr, ptr %7, align 8, !tbaa !123
  %31 = getelementptr inbounds nuw %struct._BBuf, ptr %30, i32 0, i32 1
  store i32 %29, ptr %31, align 8, !tbaa !126
  %32 = load ptr, ptr %7, align 8, !tbaa !123
  %33 = getelementptr inbounds nuw %struct._BBuf, ptr %32, i32 0, i32 0
  %34 = load ptr, ptr %33, align 8, !tbaa !127
  %35 = load ptr, ptr %5, align 8, !tbaa !123
  %36 = getelementptr inbounds nuw %struct._BBuf, ptr %35, i32 0, i32 0
  %37 = load ptr, ptr %36, align 8, !tbaa !127
  %38 = load ptr, ptr %5, align 8, !tbaa !123
  %39 = getelementptr inbounds nuw %struct._BBuf, ptr %38, i32 0, i32 1
  %40 = load i32, ptr %39, align 8, !tbaa !126
  %41 = zext i32 %40 to i64
  call void @llvm.memcpy.p0.p0.i64(ptr align 1 %34, ptr align 1 %37, i64 %41, i1 false)
  store i32 0, ptr %3, align 4
  store i32 1, ptr %8, align 4
  br label %42

42:                                               ; preds = %26, %22, %13
  call void @llvm.lifetime.end.p0(i64 8, ptr %7) #8
  call void @llvm.lifetime.end.p0(i64 4, ptr %6) #8
  %43 = load i32, ptr %3, align 4
  ret i32 %43
}

; Function Attrs: nounwind uwtable
define internal i32 @or_code_range_buf(ptr noundef %0, ptr noundef %1, i32 noundef %2, ptr noundef %3, i32 noundef %4, ptr noundef %5) #0 {
  %7 = alloca i32, align 4
  %8 = alloca ptr, align 8
  %9 = alloca ptr, align 8
  %10 = alloca i32, align 4
  %11 = alloca ptr, align 8
  %12 = alloca i32, align 4
  %13 = alloca ptr, align 8
  %14 = alloca i32, align 4
  %15 = alloca i32, align 4
  %16 = alloca i32, align 4
  %17 = alloca ptr, align 8
  %18 = alloca i32, align 4
  %19 = alloca i32, align 4
  %20 = alloca i32, align 4
  %21 = alloca ptr, align 8
  %22 = alloca i32, align 4
  %23 = alloca ptr, align 8
  %24 = alloca i32, align 4
  store ptr %0, ptr %8, align 8, !tbaa !32
  store ptr %1, ptr %9, align 8, !tbaa !123
  store i32 %2, ptr %10, align 4, !tbaa !10
  store ptr %3, ptr %11, align 8, !tbaa !123
  store i32 %4, ptr %12, align 4, !tbaa !10
  store ptr %5, ptr %13, align 8, !tbaa !121
  call void @llvm.lifetime.start.p0(i64 4, ptr %14) #8
  call void @llvm.lifetime.start.p0(i64 4, ptr %15) #8
  call void @llvm.lifetime.start.p0(i64 4, ptr %16) #8
  call void @llvm.lifetime.start.p0(i64 8, ptr %17) #8
  call void @llvm.lifetime.start.p0(i64 4, ptr %18) #8
  call void @llvm.lifetime.start.p0(i64 4, ptr %19) #8
  %25 = load ptr, ptr %13, align 8, !tbaa !121
  store ptr null, ptr %25, align 8, !tbaa !123
  %26 = load ptr, ptr %9, align 8, !tbaa !123
  %27 = icmp eq ptr %26, null
  br i1 %27, label %28, label %46

28:                                               ; preds = %6
  %29 = load ptr, ptr %11, align 8, !tbaa !123
  %30 = icmp eq ptr %29, null
  br i1 %30, label %31, label %46

31:                                               ; preds = %28
  %32 = load i32, ptr %10, align 4, !tbaa !10
  %33 = icmp ne i32 %32, 0
  br i1 %33, label %37, label %34

34:                                               ; preds = %31
  %35 = load i32, ptr %12, align 4, !tbaa !10
  %36 = icmp ne i32 %35, 0
  br i1 %36, label %37, label %45

37:                                               ; preds = %34, %31
  %38 = load ptr, ptr %13, align 8, !tbaa !121
  %39 = load ptr, ptr %8, align 8, !tbaa !32
  %40 = getelementptr inbounds nuw %struct.OnigEncodingTypeST, ptr %39, i32 0, i32 3
  %41 = load i32, ptr %40, align 4, !tbaa !136
  %42 = icmp sgt i32 %41, 1
  %43 = select i1 %42, i32 0, i32 128
  %44 = call i32 @add_code_range_to_buf(ptr noundef %38, i32 noundef %43, i32 noundef -1)
  store i32 %44, ptr %7, align 4
  store i32 1, ptr %20, align 4
  br label %161

45:                                               ; preds = %34
  store i32 0, ptr %7, align 4
  store i32 1, ptr %20, align 4
  br label %161

46:                                               ; preds = %28, %6
  store i32 0, ptr %14, align 4, !tbaa !10
  %47 = load ptr, ptr %11, align 8, !tbaa !123
  %48 = icmp eq ptr %47, null
  br i1 %48, label %49, label %59

49:                                               ; preds = %46
  br label %50

50:                                               ; preds = %49
  call void @llvm.lifetime.start.p0(i64 8, ptr %21) #8
  call void @llvm.lifetime.start.p0(i64 4, ptr %22) #8
  %51 = load i32, ptr %10, align 4, !tbaa !10
  store i32 %51, ptr %22, align 4, !tbaa !10
  %52 = load i32, ptr %12, align 4, !tbaa !10
  store i32 %52, ptr %10, align 4, !tbaa !10
  %53 = load i32, ptr %22, align 4, !tbaa !10
  store i32 %53, ptr %12, align 4, !tbaa !10
  %54 = load ptr, ptr %9, align 8, !tbaa !123
  store ptr %54, ptr %21, align 8, !tbaa !123
  %55 = load ptr, ptr %11, align 8, !tbaa !123
  store ptr %55, ptr %9, align 8, !tbaa !123
  %56 = load ptr, ptr %21, align 8, !tbaa !123
  store ptr %56, ptr %11, align 8, !tbaa !123
  call void @llvm.lifetime.end.p0(i64 4, ptr %22) #8
  call void @llvm.lifetime.end.p0(i64 8, ptr %21) #8
  br label %57

57:                                               ; preds = %50
  br label %58

58:                                               ; preds = %57
  br label %59

59:                                               ; preds = %58, %46
  %60 = load ptr, ptr %9, align 8, !tbaa !123
  %61 = icmp eq ptr %60, null
  br i1 %61, label %62, label %85

62:                                               ; preds = %59
  %63 = load i32, ptr %10, align 4, !tbaa !10
  %64 = icmp ne i32 %63, 0
  br i1 %64, label %65, label %73

65:                                               ; preds = %62
  %66 = load ptr, ptr %13, align 8, !tbaa !121
  %67 = load ptr, ptr %8, align 8, !tbaa !32
  %68 = getelementptr inbounds nuw %struct.OnigEncodingTypeST, ptr %67, i32 0, i32 3
  %69 = load i32, ptr %68, align 4, !tbaa !136
  %70 = icmp sgt i32 %69, 1
  %71 = select i1 %70, i32 0, i32 128
  %72 = call i32 @add_code_range_to_buf(ptr noundef %66, i32 noundef %71, i32 noundef -1)
  store i32 %72, ptr %7, align 4
  store i32 1, ptr %20, align 4
  br label %161

73:                                               ; preds = %62
  %74 = load i32, ptr %12, align 4, !tbaa !10
  %75 = icmp eq i32 %74, 0
  br i1 %75, label %76, label %80

76:                                               ; preds = %73
  %77 = load ptr, ptr %13, align 8, !tbaa !121
  %78 = load ptr, ptr %11, align 8, !tbaa !123
  %79 = call i32 @bbuf_clone(ptr noundef %77, ptr noundef %78)
  store i32 %79, ptr %7, align 4
  store i32 1, ptr %20, align 4
  br label %161

80:                                               ; preds = %73
  %81 = load ptr, ptr %8, align 8, !tbaa !32
  %82 = load ptr, ptr %11, align 8, !tbaa !123
  %83 = load ptr, ptr %13, align 8, !tbaa !121
  %84 = call i32 @not_code_range_buf(ptr noundef %81, ptr noundef %82, ptr noundef %83)
  store i32 %84, ptr %7, align 4
  store i32 1, ptr %20, align 4
  br label %161

85:                                               ; preds = %59
  %86 = load i32, ptr %10, align 4, !tbaa !10
  %87 = icmp ne i32 %86, 0
  br i1 %87, label %88, label %98

88:                                               ; preds = %85
  br label %89

89:                                               ; preds = %88
  call void @llvm.lifetime.start.p0(i64 8, ptr %23) #8
  call void @llvm.lifetime.start.p0(i64 4, ptr %24) #8
  %90 = load i32, ptr %10, align 4, !tbaa !10
  store i32 %90, ptr %24, align 4, !tbaa !10
  %91 = load i32, ptr %12, align 4, !tbaa !10
  store i32 %91, ptr %10, align 4, !tbaa !10
  %92 = load i32, ptr %24, align 4, !tbaa !10
  store i32 %92, ptr %12, align 4, !tbaa !10
  %93 = load ptr, ptr %9, align 8, !tbaa !123
  store ptr %93, ptr %23, align 8, !tbaa !123
  %94 = load ptr, ptr %11, align 8, !tbaa !123
  store ptr %94, ptr %9, align 8, !tbaa !123
  %95 = load ptr, ptr %23, align 8, !tbaa !123
  store ptr %95, ptr %11, align 8, !tbaa !123
  call void @llvm.lifetime.end.p0(i64 4, ptr %24) #8
  call void @llvm.lifetime.end.p0(i64 8, ptr %23) #8
  br label %96

96:                                               ; preds = %89
  br label %97

97:                                               ; preds = %96
  br label %98

98:                                               ; preds = %97, %85
  %99 = load ptr, ptr %9, align 8, !tbaa !123
  %100 = getelementptr inbounds nuw %struct._BBuf, ptr %99, i32 0, i32 0
  %101 = load ptr, ptr %100, align 8, !tbaa !127
  store ptr %101, ptr %17, align 8, !tbaa !62
  %102 = load ptr, ptr %17, align 8, !tbaa !62
  %103 = load i32, ptr %102, align 4, !tbaa !10
  store i32 %103, ptr %16, align 4, !tbaa !10
  %104 = load ptr, ptr %17, align 8, !tbaa !62
  %105 = getelementptr inbounds nuw i32, ptr %104, i32 1
  store ptr %105, ptr %17, align 8, !tbaa !62
  %106 = load i32, ptr %12, align 4, !tbaa !10
  %107 = icmp eq i32 %106, 0
  br i1 %107, label %108, label %115

108:                                              ; preds = %98
  %109 = load i32, ptr %10, align 4, !tbaa !10
  %110 = icmp eq i32 %109, 0
  br i1 %110, label %111, label %115

111:                                              ; preds = %108
  %112 = load ptr, ptr %13, align 8, !tbaa !121
  %113 = load ptr, ptr %11, align 8, !tbaa !123
  %114 = call i32 @bbuf_clone(ptr noundef %112, ptr noundef %113)
  store i32 %114, ptr %14, align 4, !tbaa !10
  br label %124

115:                                              ; preds = %108, %98
  %116 = load i32, ptr %10, align 4, !tbaa !10
  %117 = icmp eq i32 %116, 0
  br i1 %117, label %118, label %123

118:                                              ; preds = %115
  %119 = load ptr, ptr %8, align 8, !tbaa !32
  %120 = load ptr, ptr %11, align 8, !tbaa !123
  %121 = load ptr, ptr %13, align 8, !tbaa !121
  %122 = call i32 @not_code_range_buf(ptr noundef %119, ptr noundef %120, ptr noundef %121)
  store i32 %122, ptr %14, align 4, !tbaa !10
  br label %123

123:                                              ; preds = %118, %115
  br label %124

124:                                              ; preds = %123, %111
  %125 = load i32, ptr %14, align 4, !tbaa !10
  %126 = icmp ne i32 %125, 0
  br i1 %126, label %127, label %129

127:                                              ; preds = %124
  %128 = load i32, ptr %14, align 4, !tbaa !10
  store i32 %128, ptr %7, align 4
  store i32 1, ptr %20, align 4
  br label %161

129:                                              ; preds = %124
  store i32 0, ptr %15, align 4, !tbaa !10
  br label %130

130:                                              ; preds = %157, %129
  %131 = load i32, ptr %15, align 4, !tbaa !10
  %132 = load i32, ptr %16, align 4, !tbaa !10
  %133 = icmp ult i32 %131, %132
  br i1 %133, label %134, label %160

134:                                              ; preds = %130
  %135 = load ptr, ptr %17, align 8, !tbaa !62
  %136 = load i32, ptr %15, align 4, !tbaa !10
  %137 = mul i32 %136, 2
  %138 = zext i32 %137 to i64
  %139 = getelementptr inbounds nuw i32, ptr %135, i64 %138
  %140 = load i32, ptr %139, align 4, !tbaa !10
  store i32 %140, ptr %18, align 4, !tbaa !10
  %141 = load ptr, ptr %17, align 8, !tbaa !62
  %142 = load i32, ptr %15, align 4, !tbaa !10
  %143 = mul i32 %142, 2
  %144 = add i32 %143, 1
  %145 = zext i32 %144 to i64
  %146 = getelementptr inbounds nuw i32, ptr %141, i64 %145
  %147 = load i32, ptr %146, align 4, !tbaa !10
  store i32 %147, ptr %19, align 4, !tbaa !10
  %148 = load ptr, ptr %13, align 8, !tbaa !121
  %149 = load i32, ptr %18, align 4, !tbaa !10
  %150 = load i32, ptr %19, align 4, !tbaa !10
  %151 = call i32 @add_code_range_to_buf(ptr noundef %148, i32 noundef %149, i32 noundef %150)
  store i32 %151, ptr %14, align 4, !tbaa !10
  %152 = load i32, ptr %14, align 4, !tbaa !10
  %153 = icmp ne i32 %152, 0
  br i1 %153, label %154, label %156

154:                                              ; preds = %134
  %155 = load i32, ptr %14, align 4, !tbaa !10
  store i32 %155, ptr %7, align 4
  store i32 1, ptr %20, align 4
  br label %161

156:                                              ; preds = %134
  br label %157

157:                                              ; preds = %156
  %158 = load i32, ptr %15, align 4, !tbaa !10
  %159 = add i32 %158, 1
  store i32 %159, ptr %15, align 4, !tbaa !10
  br label %130, !llvm.loop !321

160:                                              ; preds = %130
  store i32 0, ptr %7, align 4
  store i32 1, ptr %20, align 4
  br label %161

161:                                              ; preds = %160, %154, %127, %80, %76, %65, %45, %37
  call void @llvm.lifetime.end.p0(i64 4, ptr %19) #8
  call void @llvm.lifetime.end.p0(i64 4, ptr %18) #8
  call void @llvm.lifetime.end.p0(i64 8, ptr %17) #8
  call void @llvm.lifetime.end.p0(i64 4, ptr %16) #8
  call void @llvm.lifetime.end.p0(i64 4, ptr %15) #8
  call void @llvm.lifetime.end.p0(i64 4, ptr %14) #8
  %162 = load i32, ptr %7, align 4
  ret i32 %162
}